; Function Attrs: mustprogress nounwind uwtable
define dso_local void @_ZN4llvm8codeview15TypeDumpVisitor16visitKnownRecordERNS0_8CVRecordINS0_12TypeLeafKindEEERNS0_19UdtSourceLineRecordE(ptr dead_on_unwind noalias writable writeonly sret(%"class.llvm::Error") align 8 captures(none) initializes((0, 8)) %0, ptr noundef nonnull readonly align 8 captures(none) dereferenceable(40) %1, ptr nonnull readnone align 8 captures(none) %2, ptr noundef nonnull readonly align 4 captures(none) dereferenceable(16) %3) unnamed_addr #0 align 2 {
_ZN4llvm12ErrorSuccessD2Ev.exit:
  %4 = getelementptr inbounds nuw i8, ptr %3, i64 2
  %.sroa.0.0.copyload.i = load i32, ptr %4, align 2
  %5 = getelementptr inbounds nuw i8, ptr %1, i64 8
  %6 = load ptr, ptr %5, align 8
  %7 = getelementptr inbounds nuw i8, ptr %1, i64 24
  %8 = load ptr, ptr %7, align 8
  tail call void @_ZN4llvm8codeview14printTypeIndexERNS_13ScopedPrinterENS_9StringRefENS0_9TypeIndexERNS0_14TypeCollectionE(ptr noundef nonnull align 8 dereferenceable(44) %6, ptr nonnull @.str.64, i64 3, i32 %.sroa.0.0.copyload.i, ptr noundef nonnull align 8 dereferenceable(8) %8) #14
  %9 = getelementptr inbounds nuw i8, ptr %3, i64 6
  %.sroa.0.0.copyload.i5 = load i32, ptr %9, align 2
  %10 = load ptr, ptr %5, align 8
  %11 = getelementptr inbounds nuw i8, ptr %1, i64 32
  %12 = load ptr, ptr %11, align 8
  %.not.i.i = icmp eq ptr %12, null
  %13 = load ptr, ptr %7, align 8
  %14 = select i1 %.not.i.i, ptr %13, ptr %12
  tail call void @_ZN4llvm8codeview14printTypeIndexERNS_13ScopedPrinterENS_9StringRefENS0_9TypeIndexERNS0_14TypeCollectionE(ptr noundef nonnull align 8 dereferenceable(44) %10, ptr nonnull @.str.65, i64 10, i32 %.sroa.0.0.copyload.i5, ptr noundef nonnull align 8 dereferenceable(8) %14) #14
  %15 = load ptr, ptr %5, align 8
  %16 = getelementptr inbounds nuw i8, ptr %3, i64 12
  %17 = load i32, ptr %16, align 4
  %18 = load ptr, ptr %15, align 8
  %19 = getelementptr inbounds nuw i8, ptr %18, i64 64
  %20 = load ptr, ptr %19, align 8
  tail call void %20(ptr noundef nonnull align 8 dereferenceable(44) %15, ptr nonnull @.str.66, i64 10, i32 noundef %17) #14
  store ptr null, ptr %0, align 8
  ret void
}